target datalayout = "e-m:e-p270:32:32-p271:32:32-p272:64:64-i64:64-i128:128-f80:128-n8:16:32:64-S128"
target triple = "x86_64-pc-linux-gnu"

%struct.QTailQLink = type { ptr, ptr }
%struct.CPUState = type { %struct.DeviceState, ptr, i32, ptr, i32, i8, i8, ptr, i8, i8, i8, i8, i8, i8, i8, i8, i32, i32, i32, i32, i64, i64, i64, [1 x %struct.__jmp_buf_tag], %struct.QemuMutex, %struct.anon, ptr, i32, i32, ptr, ptr, ptr, ptr, i32, i32, %union.anon, %union.anon.0, %union.anon.1, ptr, ptr, i64, i32, ptr, ptr, ptr, i32, i64, i32, i8, %struct.QemuLockCnt, ptr, i32, i32, i32, i32, i32, ptr, i8, i64, i8, i8, ptr, [0 x i8], %struct.CPUNegativeOffsetState }
%struct.DeviceState = type { %struct.Object, ptr, ptr, i8, i8, i64, i32, i8, ptr, %struct.NamedGPIOListHead, %struct.NamedClockListHead, %struct.BusStateHead, i32, i32, i32, %struct.ResettableState, ptr, %struct.MemReentrancyGuard }
%struct.Object = type { ptr, ptr, ptr, i32, ptr }
%struct.NamedGPIOListHead = type { ptr }
%struct.NamedClockListHead = type { ptr }
%struct.BusStateHead = type { ptr }
%struct.ResettableState = type { i32, i8, i8 }
%struct.MemReentrancyGuard = type { i8 }
%struct.__jmp_buf_tag = type { [8 x i64], i32, %struct.__sigset_t }
%struct.__sigset_t = type { [16 x i64] }
%struct.QemuMutex = type { %union.pthread_mutex_t, i8 }
%union.pthread_mutex_t = type { %struct.__pthread_mutex_s }
%struct.__pthread_mutex_s = type { i32, i32, i32, i32, i32, i16, i16, %struct.__pthread_internal_list }
%struct.__pthread_internal_list = type { ptr, ptr }
%struct.anon = type { ptr, ptr }
%union.anon = type { %struct.QTailQLink }
%union.anon.0 = type { %struct.QTailQLink }
%union.anon.1 = type { %struct.QTailQLink }
%struct.QemuLockCnt = type { i32 }
%struct.CPUNegativeOffsetState = type { %struct.CPUTLB, ptr, i64, i64, %union.IcountDecr, i8 }
%struct.CPUTLB = type { %struct.CPUTLBCommon, [16 x %struct.CPUTLBDesc], [16 x %struct.CPUTLBDescFast] }
%struct.CPUTLBCommon = type { %struct.QemuSpin, i16, i64, i64, i64 }
%struct.QemuSpin = type { i32 }
%struct.CPUTLBDesc = type { i64, i64, i64, i64, i64, i64, [8 x %union.CPUTLBEntry], [8 x %struct.CPUTLBEntryFull], ptr }
%union.CPUTLBEntry = type { %struct.anon.2 }
%struct.anon.2 = type { i64, i64, i64, i64 }
%struct.CPUTLBEntryFull = type { i64, i64, %struct.MemTxAttrs, i8, i8, i8, [3 x i8], %union.anon.3 }
%struct.MemTxAttrs = type { i32, i8, i8, i16 }
%union.anon.3 = type { %struct.anon.4 }
%struct.anon.4 = type { i8, i8, i8 }
%struct.CPUTLBDescFast = type { i64, ptr }
%union.IcountDecr = type { i32 }
%struct.anon.5 = type { i16, i16 }

; Function Attrs: nounwind sspstrong uwtable
define dso_local void @cpu_exit(ptr noundef %0) #0 {
  %2 = alloca ptr, align 8
  %3 = alloca i8, align 1
  %4 = alloca i16, align 2
  store ptr %0, ptr %2, align 8
  br label %5

5:                                                ; preds = %1
  br label %6

6:                                                ; preds = %5
  br i1 false, label %7, label %8

7:                                                ; preds = %6
  call void @qemu_build_not_reached_always() #14, !srcloc !13
  unreachable

8:                                                ; preds = %6
  %9 = load ptr, ptr %2, align 8
  %10 = getelementptr inbounds nuw %struct.CPUState, ptr %9, i32 0, i32 15
  store i8 1, ptr %3, align 1
  %11 = load i8, ptr %3, align 1
  store atomic i8 %11, ptr %10 monotonic, align 1
  br label %12

12:                                               ; preds = %8
  call void asm sideeffect "", "~{memory},~{dirflag},~{fpsr},~{flags}"() #13, !srcloc !14
  fence release
  br label %13

13:                                               ; preds = %12
  br label %14

14:                                               ; preds = %13
  br i1 false, label %15, label %16

15:                                               ; preds = %14
  call void @qemu_build_not_reached_always() #14, !srcloc !15
  unreachable

16:                                               ; preds = %14
  %17 = load ptr, ptr %2, align 8
  %18 = getelementptr inbounds nuw %struct.CPUState, ptr %17, i32 0, i32 63
  %19 = getelementptr inbounds nuw %struct.CPUNegativeOffsetState, ptr %18, i32 0, i32 4
  %20 = getelementptr inbounds nuw %struct.anon.5, ptr %19, i32 0, i32 1
  store i16 -1, ptr %4, align 2
  %21 = load i16, ptr %4, align 2
  store atomic i16 %21, ptr %20 monotonic, align 2
  br label %22

22:                                               ; preds = %16
  ret void
}