; Function Attrs: nounwind sspstrong uwtable
define dso_local void @cpu_exit(ptr noundef writeonly captures(none) %0) local_unnamed_addr #0 {
  %2 = getelementptr inbounds nuw i8, ptr %0, i64 199
  store atomic i8 1, ptr %2 monotonic, align 1
  tail call void asm sideeffect "", "~{memory},~{dirflag},~{fpsr},~{flags}"() #12, !srcloc !8
  fence release
  %3 = getelementptr inbounds nuw i8, ptr %0, i64 11194
  store atomic i16 -1, ptr %3 monotonic, align 2
  ret void
}